target datalayout = "e-m:e-p270:32:32-p271:32:32-p272:64:64-i64:64-i128:128-f80:128-n8:16:32:64-S128"
target triple = "x86_64-pc-linux-gnu"

%"class.llvm::sampleprof::FunctionId" = type { ptr, i64 }
%"struct.std::_Rb_tree_header" = type { %"struct.std::_Rb_tree_node_base", i64 }
%"struct.std::_Rb_tree_node_base" = type { i32, ptr, ptr, ptr }
%"struct.std::__detail::_Hash_node_base" = type { ptr }
%"struct.std::__detail::_Prime_rehash_policy" = type { float, i64 }
%"class.llvm::sampleprof::FunctionSamples" = type { ptr, i64, %"class.llvm::sampleprof::SampleContext", i64, i64, %"class.std::map.32", %"class.std::map.37", ptr }
%"class.llvm::sampleprof::SampleContext" = type { %"class.llvm::sampleprof::FunctionId", %"class.llvm::ArrayRef", i32, i32 }
%"class.llvm::ArrayRef" = type { ptr, i64 }
%"class.std::map.32" = type { %"class.std::_Rb_tree.33" }
%"class.std::_Rb_tree.33" = type { %"struct.std::_Rb_tree<llvm::sampleprof::LineLocation, std::pair<const llvm::sampleprof::LineLocation, llvm::sampleprof::SampleRecord>, std::_Select1st<std::pair<const llvm::sampleprof::LineLocation, llvm::sampleprof::SampleRecord>>, std::less<llvm::sampleprof::LineLocation>>::_Rb_tree_impl" }
%"struct.std::_Rb_tree<llvm::sampleprof::LineLocation, std::pair<const llvm::sampleprof::LineLocation, llvm::sampleprof::SampleRecord>, std::_Select1st<std::pair<const llvm::sampleprof::LineLocation, llvm::sampleprof::SampleRecord>>, std::less<llvm::sampleprof::LineLocation>>::_Rb_tree_impl" = type { [8 x i8], %"struct.std::_Rb_tree_header" }
%"class.std::map.37" = type { %"class.std::_Rb_tree.38" }
%"class.std::_Rb_tree.38" = type { %"struct.std::_Rb_tree<llvm::sampleprof::LineLocation, std::pair<const llvm::sampleprof::LineLocation, std::map<llvm::sampleprof::FunctionId, llvm::sampleprof::FunctionSamples>>, std::_Select1st<std::pair<const llvm::sampleprof::LineLocation, std::map<llvm::sampleprof::FunctionId, llvm::sampleprof::FunctionSamples>>>, std::less<llvm::sampleprof::LineLocation>>::_Rb_tree_impl" }
%"struct.std::_Rb_tree<llvm::sampleprof::LineLocation, std::pair<const llvm::sampleprof::LineLocation, std::map<llvm::sampleprof::FunctionId, llvm::sampleprof::FunctionSamples>>, std::_Select1st<std::pair<const llvm::sampleprof::LineLocation, std::map<llvm::sampleprof::FunctionId, llvm::sampleprof::FunctionSamples>>>, std::less<llvm::sampleprof::LineLocation>>::_Rb_tree_impl" = type { [8 x i8], %"struct.std::_Rb_tree_header" }
%"class.llvm::SampleProfileMatcher" = type { ptr, ptr, ptr, ptr, i32, %"class.llvm::sampleprof::SampleProfileMap", %"class.llvm::StringMap", %"class.llvm::StringMap.83", %"class.std::unordered_map.84", %"class.std::unordered_map.102", ptr, ptr, %"class.llvm::sampleprof::HashKeyMap.121", %"class.std::shared_ptr", i64, i64, i64, i64, i64, i64, i64, i64, i64, i64, i64 }
%"class.llvm::sampleprof::SampleProfileMap" = type { %"class.llvm::sampleprof::HashKeyMap" }
%"class.llvm::sampleprof::HashKeyMap" = type { %"class.std::unordered_map.64" }
%"class.std::unordered_map.64" = type { %"class.std::_Hashtable.65" }
%"class.std::_Hashtable.65" = type { ptr, i64, %"struct.std::__detail::_Hash_node_base", i64, %"struct.std::__detail::_Prime_rehash_policy", ptr }
%"class.llvm::StringMap" = type { %"class.llvm::StringMapImpl" }
%"class.llvm::StringMapImpl" = type { ptr, i32, i32, i32, i32 }
%"class.llvm::StringMap.83" = type { %"class.llvm::StringMapImpl" }
%"class.std::unordered_map.84" = type { %"class.std::_Hashtable.85" }
%"class.std::_Hashtable.85" = type { ptr, i64, %"struct.std::__detail::_Hash_node_base", i64, %"struct.std::__detail::_Prime_rehash_policy", ptr }
%"class.std::unordered_map.102" = type { %"class.std::_Hashtable.103" }
%"class.std::_Hashtable.103" = type { ptr, i64, %"struct.std::__detail::_Hash_node_base", i64, %"struct.std::__detail::_Prime_rehash_policy", ptr }
%"class.llvm::sampleprof::HashKeyMap.121" = type { %"class.std::unordered_map.122" }
%"class.std::unordered_map.122" = type { %"class.std::_Hashtable.123" }
%"class.std::_Hashtable.123" = type { ptr, i64, %"struct.std::__detail::_Hash_node_base", i64, %"struct.std::__detail::_Prime_rehash_policy", ptr }
%"class.std::shared_ptr" = type { %"class.std::__shared_ptr" }
%"class.std::__shared_ptr" = type { ptr, %"class.std::__shared_count" }
%"class.std::__shared_count" = type { ptr }
%"struct.std::__detail::_Node_iterator.499" = type { %"struct.std::__detail::_Node_iterator_base.500" }
%"struct.std::__detail::_Node_iterator_base.500" = type { ptr }
%"struct.std::pair.501" = type { %"class.llvm::hash_code", %"class.llvm::sampleprof::FunctionSamples" }
%"class.llvm::hash_code" = type { i64 }
%"class.std::unique_ptr.295" = type { %"struct.std::__uniq_ptr_data.296" }
%"struct.std::__uniq_ptr_data.296" = type { %"class.std::__uniq_ptr_impl.297" }
%"class.std::__uniq_ptr_impl.297" = type { %"class.std::tuple.298" }
%"class.std::tuple.298" = type { %"struct.std::_Tuple_impl.299" }
%"struct.std::_Tuple_impl.299" = type { %"struct.std::_Head_base.302" }
%"struct.std::_Head_base.302" = type { ptr }
%"class.llvm::sampleprof::SampleProfileReader" = type <{ ptr, %"class.llvm::sampleprof::SampleProfileMap", ptr, %"class.std::unique_ptr.295", %"class.std::unique_ptr.349", %"class.std::unique_ptr.357", %"class.std::unordered_map.365", %"struct.std::pair.379", i8, i8, i8, i8, i32, i8, [3 x i8], i32, ptr, i32, i8, i8, [2 x i8] }>
%"class.std::unique_ptr.349" = type { %"struct.std::__uniq_ptr_data.350" }
%"struct.std::__uniq_ptr_data.350" = type { %"class.std::__uniq_ptr_impl.351" }
%"class.std::__uniq_ptr_impl.351" = type { %"class.std::tuple.352" }
%"class.std::tuple.352" = type { %"struct.std::_Tuple_impl.353" }
%"struct.std::_Tuple_impl.353" = type { %"struct.std::_Head_base.356" }
%"struct.std::_Head_base.356" = type { ptr }
%"class.std::unique_ptr.357" = type { %"struct.std::__uniq_ptr_data.358" }
%"struct.std::__uniq_ptr_data.358" = type { %"class.std::__uniq_ptr_impl.359" }
%"class.std::__uniq_ptr_impl.359" = type { %"class.std::tuple.360" }
%"class.std::tuple.360" = type { %"struct.std::_Tuple_impl.361" }
%"struct.std::_Tuple_impl.361" = type { %"struct.std::_Head_base.364" }
%"struct.std::_Head_base.364" = type { ptr }
%"class.std::unordered_map.365" = type { %"class.std::_Hashtable.366" }
%"class.std::_Hashtable.366" = type { ptr, i64, %"struct.std::__detail::_Hash_node_base", i64, %"struct.std::__detail::_Prime_rehash_policy", ptr }
%"struct.std::pair.379" = type { ptr, ptr }
%"struct.std::__detail::_Hash_node_value_base.529" = type { %"struct.__gnu_cxx::__aligned_buffer.530" }
%"struct.__gnu_cxx::__aligned_buffer.530" = type { %"union.std::aligned_storage<184, 8>::type" }
%"union.std::aligned_storage<184, 8>::type" = type { [184 x i8] }

; Function Attrs: mustprogress nounwind uwtable
define linkonce_odr hidden noundef ptr @_ZN9__gnu_cxx16__aligned_bufferISt4pairIKN4llvm9hash_codeENS2_10sampleprof15FunctionSamplesEEE7_M_addrEv(ptr noundef nonnull align 8 dereferenceable(184) %0) #1 comdat align 2 {
  %2 = alloca ptr, align 8
  store ptr %0, ptr %2, align 8
  %3 = load ptr, ptr %2, align 8
  %4 = getelementptr inbounds nuw %"struct.__gnu_cxx::__aligned_buffer.530", ptr %3, i32 0, i32 0
  ret ptr %4
}

; Function Attrs: mustprogress nounwind uwtable
define linkonce_odr hidden noundef ptr @_ZN9__gnu_cxx16__aligned_bufferISt4pairIKN4llvm9hash_codeENS2_10sampleprof15FunctionSamplesEEE6_M_ptrEv(ptr noundef nonnull align 8 dereferenceable(184) %0) #1 comdat align 2 {
  %2 = alloca ptr, align 8
  store ptr %0, ptr %2, align 8
  %3 = load ptr, ptr %2, align 8
  %4 = call noundef ptr @_ZN9__gnu_cxx16__aligned_bufferISt4pairIKN4llvm9hash_codeENS2_10sampleprof15FunctionSamplesEEE7_M_addrEv(ptr noundef nonnull align 8 dereferenceable(184) %3) #2
  ret ptr %4
}

; Function Attrs: mustprogress nounwind uwtable
define linkonce_odr hidden void @_ZNSt8__detail19_Node_iterator_baseISt4pairIKN4llvm9hash_codeENS2_10sampleprof15FunctionSamplesEELb1EEC2EPNS_10_Hash_nodeIS7_Lb1EEE(ptr noundef nonnull align 8 dereferenceable(8) %0, ptr noundef %1) unnamed_addr #1 comdat align 2 {
  %3 = alloca ptr, align 8
  %4 = alloca ptr, align 8
  store ptr %0, ptr %3, align 8
  store ptr %1, ptr %4, align 8
  %5 = load ptr, ptr %3, align 8
  %6 = getelementptr inbounds nuw %"struct.std::__detail::_Node_iterator_base.500", ptr %5, i32 0, i32 0
  %7 = load ptr, ptr %4, align 8
  store ptr %7, ptr %6, align 8
  ret void
}

; Function Attrs: mustprogress nounwind uwtable
define linkonce_odr hidden noundef ptr @_ZNKSt8__detail10_Hash_nodeISt4pairIKN4llvm9hash_codeENS2_10sampleprof15FunctionSamplesEELb1EE7_M_nextEv(ptr noundef nonnull align 8 dereferenceable(200) %0) #1 comdat align 2 {
  %2 = alloca ptr, align 8
  store ptr %0, ptr %2, align 8
  %3 = load ptr, ptr %2, align 8
  %4 = getelementptr inbounds nuw %"struct.std::__detail::_Hash_node_base", ptr %3, i32 0, i32 0
  %5 = load ptr, ptr %4, align 8
  ret ptr %5
}

; Function Attrs: mustprogress nounwind uwtable
define linkonce_odr hidden noundef ptr @_ZNSt8__detail21_Hash_node_value_baseISt4pairIKN4llvm9hash_codeENS2_10sampleprof15FunctionSamplesEEE9_M_valptrEv(ptr noundef nonnull align 8 dereferenceable(184) %0) #1 comdat align 2 {
  %2 = alloca ptr, align 8
  store ptr %0, ptr %2, align 8
  %3 = load ptr, ptr %2, align 8
  %4 = getelementptr inbounds nuw %"struct.std::__detail::_Hash_node_value_base.529", ptr %3, i32 0, i32 0
  %5 = call noundef ptr @_ZN9__gnu_cxx16__aligned_bufferISt4pairIKN4llvm9hash_codeENS2_10sampleprof15FunctionSamplesEEE6_M_ptrEv(ptr noundef nonnull align 8 dereferenceable(184) %4) #2
  ret ptr %5
}

; Function Attrs: mustprogress nounwind uwtable
define linkonce_odr hidden void @_ZNSt8__detail14_Node_iteratorISt4pairIKN4llvm9hash_codeENS2_10sampleprof15FunctionSamplesEELb0ELb1EEC2EPNS_10_Hash_nodeIS7_Lb1EEE(ptr noundef nonnull align 8 dereferenceable(8) %0, ptr noundef %1) unnamed_addr #1 comdat align 2 {
  %3 = alloca ptr, align 8
  %4 = alloca ptr, align 8
  store ptr %0, ptr %3, align 8
  store ptr %1, ptr %4, align 8
  %5 = load ptr, ptr %3, align 8
  %6 = load ptr, ptr %4, align 8
  call void @_ZNSt8__detail19_Node_iterator_baseISt4pairIKN4llvm9hash_codeENS2_10sampleprof15FunctionSamplesEELb1EEC2EPNS_10_Hash_nodeIS7_Lb1EEE(ptr noundef nonnull align 8 dereferenceable(8) %5, ptr noundef %6) #2
  ret void
}

; Function Attrs: mustprogress nounwind uwtable
define linkonce_odr hidden noundef ptr @_ZNKSt10_HashtableIN4llvm9hash_codeESt4pairIKS1_NS0_10sampleprof15FunctionSamplesEESaIS6_ENSt8__detail10_Select1stESt8equal_toIS1_ESt4hashIS1_ENS8_18_Mod_range_hashingENS8_20_Default_ranged_hashENS8_20_Prime_rehash_policyENS8_17_Hashtable_traitsILb1ELb0ELb1EEEE8_M_beginEv(ptr noundef nonnull align 8 dereferenceable(56) %0) #1 comdat align 2 {
  %2 = alloca ptr, align 8
  store ptr %0, ptr %2, align 8
  %3 = load ptr, ptr %2, align 8
  %4 = getelementptr inbounds nuw %"class.std::_Hashtable.65", ptr %3, i32 0, i32 2
  %5 = getelementptr inbounds nuw %"struct.std::__detail::_Hash_node_base", ptr %4, i32 0, i32 0
  %6 = load ptr, ptr %5, align 8
  ret ptr %6
}

; Function Attrs: mustprogress nounwind uwtable
define linkonce_odr hidden void @_ZNSt8__detail19_Node_iterator_baseISt4pairIKN4llvm9hash_codeENS2_10sampleprof15FunctionSamplesEELb1EE7_M_incrEv(ptr noundef nonnull align 8 dereferenceable(8) %0) #1 comdat align 2 {
  %2 = alloca ptr, align 8
  store ptr %0, ptr %2, align 8
  %3 = load ptr, ptr %2, align 8
  %4 = getelementptr inbounds nuw %"struct.std::__detail::_Node_iterator_base.500", ptr %3, i32 0, i32 0
  %5 = load ptr, ptr %4, align 8
  %6 = call noundef ptr @_ZNKSt8__detail10_Hash_nodeISt4pairIKN4llvm9hash_codeENS2_10sampleprof15FunctionSamplesEELb1EE7_M_nextEv(ptr noundef nonnull align 8 dereferenceable(200) %5) #2
  %7 = getelementptr inbounds nuw %"struct.std::__detail::_Node_iterator_base.500", ptr %3, i32 0, i32 0
  store ptr %6, ptr %7, align 8
  ret void
}

; Function Attrs: mustprogress nounwind uwtable
define linkonce_odr hidden noundef nonnull align 8 dereferenceable(184) ptr @_ZNSt8__detail21_Hash_node_value_baseISt4pairIKN4llvm9hash_codeENS2_10sampleprof15FunctionSamplesEEE4_M_vEv(ptr noundef nonnull align 8 dereferenceable(184) %0) #1 comdat align 2 {
  %2 = alloca ptr, align 8
  store ptr %0, ptr %2, align 8
  %3 = load ptr, ptr %2, align 8
  %4 = call noundef ptr @_ZNSt8__detail21_Hash_node_value_baseISt4pairIKN4llvm9hash_codeENS2_10sampleprof15FunctionSamplesEEE9_M_valptrEv(ptr noundef nonnull align 8 dereferenceable(184) %3) #2
  ret ptr %4
}

; Function Attrs: mustprogress nounwind uwtable
define linkonce_odr hidden ptr @_ZNSt10_HashtableIN4llvm9hash_codeESt4pairIKS1_NS0_10sampleprof15FunctionSamplesEESaIS6_ENSt8__detail10_Select1stESt8equal_toIS1_ESt4hashIS1_ENS8_18_Mod_range_hashingENS8_20_Default_ranged_hashENS8_20_Prime_rehash_policyENS8_17_Hashtable_traitsILb1ELb0ELb1EEEE3endEv(ptr noundef nonnull align 8 dereferenceable(56) %0) #1 comdat align 2 {
  %2 = alloca %"struct.std::__detail::_Node_iterator.499", align 8
  %3 = alloca ptr, align 8
  store ptr %0, ptr %3, align 8
  call void @_ZNSt8__detail14_Node_iteratorISt4pairIKN4llvm9hash_codeENS2_10sampleprof15FunctionSamplesEELb0ELb1EEC2EPNS_10_Hash_nodeIS7_Lb1EEE(ptr noundef nonnull align 8 dereferenceable(8) %2, ptr noundef null) #2
  %4 = getelementptr inbounds nuw %"struct.std::__detail::_Node_iterator.499", ptr %2, i32 0, i32 0
  %5 = getelementptr inbounds nuw %"struct.std::__detail::_Node_iterator_base.500", ptr %4, i32 0, i32 0
  %6 = load ptr, ptr %5, align 8
  ret ptr %6
}

; Function Attrs: mustprogress nounwind uwtable
define linkonce_odr hidden ptr @_ZNSt10_HashtableIN4llvm9hash_codeESt4pairIKS1_NS0_10sampleprof15FunctionSamplesEESaIS6_ENSt8__detail10_Select1stESt8equal_toIS1_ESt4hashIS1_ENS8_18_Mod_range_hashingENS8_20_Default_ranged_hashENS8_20_Prime_rehash_policyENS8_17_Hashtable_traitsILb1ELb0ELb1EEEE5beginEv(ptr noundef nonnull align 8 dereferenceable(56) %0) #1 comdat align 2 {
  %2 = alloca %"struct.std::__detail::_Node_iterator.499", align 8
  %3 = alloca ptr, align 8
  store ptr %0, ptr %3, align 8
  %4 = load ptr, ptr %3, align 8
  %5 = call noundef ptr @_ZNKSt10_HashtableIN4llvm9hash_codeESt4pairIKS1_NS0_10sampleprof15FunctionSamplesEESaIS6_ENSt8__detail10_Select1stESt8equal_toIS1_ESt4hashIS1_ENS8_18_Mod_range_hashingENS8_20_Default_ranged_hashENS8_20_Prime_rehash_policyENS8_17_Hashtable_traitsILb1ELb0ELb1EEEE8_M_beginEv(ptr noundef nonnull align 8 dereferenceable(56) %4)
  call void @_ZNSt8__detail14_Node_iteratorISt4pairIKN4llvm9hash_codeENS2_10sampleprof15FunctionSamplesEELb0ELb1EEC2EPNS_10_Hash_nodeIS7_Lb1EEE(ptr noundef nonnull align 8 dereferenceable(8) %2, ptr noundef %5) #2
  %6 = getelementptr inbounds nuw %"struct.std::__detail::_Node_iterator.499", ptr %2, i32 0, i32 0
  %7 = getelementptr inbounds nuw %"struct.std::__detail::_Node_iterator_base.500", ptr %6, i32 0, i32 0
  %8 = load ptr, ptr %7, align 8
  ret ptr %8
}

; Function Attrs: mustprogress nounwind uwtable
define linkonce_odr hidden noundef nonnull align 8 dereferenceable(8) ptr @_ZNSt8__detail14_Node_iteratorISt4pairIKN4llvm9hash_codeENS2_10sampleprof15FunctionSamplesEELb0ELb1EEppEv(ptr noundef nonnull align 8 dereferenceable(8) %0) #1 comdat align 2 {
  %2 = alloca ptr, align 8
  store ptr %0, ptr %2, align 8
  %3 = load ptr, ptr %2, align 8
  call void @_ZNSt8__detail19_Node_iterator_baseISt4pairIKN4llvm9hash_codeENS2_10sampleprof15FunctionSamplesEELb1EE7_M_incrEv(ptr noundef nonnull align 8 dereferenceable(8) %3) #2
  ret ptr %3
}

; Function Attrs: mustprogress nounwind uwtable
define linkonce_odr hidden noundef nonnull align 8 dereferenceable(184) ptr @_ZNKSt8__detail14_Node_iteratorISt4pairIKN4llvm9hash_codeENS2_10sampleprof15FunctionSamplesEELb0ELb1EEdeEv(ptr noundef nonnull align 8 dereferenceable(8) %0) #1 comdat align 2 {
  %2 = alloca ptr, align 8
  store ptr %0, ptr %2, align 8
  %3 = load ptr, ptr %2, align 8
  %4 = getelementptr inbounds nuw %"struct.std::__detail::_Node_iterator_base.500", ptr %3, i32 0, i32 0
  %5 = load ptr, ptr %4, align 8
  %6 = getelementptr inbounds i8, ptr %5, i64 8
  %7 = call noundef nonnull align 8 dereferenceable(184) ptr @_ZNSt8__detail21_Hash_node_value_baseISt4pairIKN4llvm9hash_codeENS2_10sampleprof15FunctionSamplesEEE4_M_vEv(ptr noundef nonnull align 8 dereferenceable(184) %6) #2
  ret ptr %7
}

; Function Attrs: mustprogress nounwind uwtable
define linkonce_odr noundef zeroext i1 @_ZNSt8__detailneERKNS_19_Node_iterator_baseISt4pairIKN4llvm9hash_codeENS2_10sampleprof15FunctionSamplesEELb1EEESA_(ptr noundef nonnull align 8 dereferenceable(8) %0, ptr noundef nonnull align 8 dereferenceable(8) %1) #1 comdat {
  %3 = alloca ptr, align 8
  %4 = alloca ptr, align 8
  store ptr %0, ptr %3, align 8
  store ptr %1, ptr %4, align 8
  %5 = load ptr, ptr %3, align 8
  %6 = getelementptr inbounds nuw %"struct.std::__detail::_Node_iterator_base.500", ptr %5, i32 0, i32 0
  %7 = load ptr, ptr %6, align 8
  %8 = load ptr, ptr %4, align 8
  %9 = getelementptr inbounds nuw %"struct.std::__detail::_Node_iterator_base.500", ptr %8, i32 0, i32 0
  %10 = load ptr, ptr %9, align 8
  %11 = icmp ne ptr %7, %10
  ret i1 %11
}

; Function Attrs: mustprogress nounwind uwtable
define linkonce_odr hidden ptr @_ZNSt13unordered_mapIN4llvm9hash_codeENS0_10sampleprof15FunctionSamplesESt4hashIS1_ESt8equal_toIS1_ESaISt4pairIKS1_S3_EEE3endEv(ptr noundef nonnull align 8 dereferenceable(56) %0) #1 comdat align 2 {
  %2 = alloca %"struct.std::__detail::_Node_iterator.499", align 8
  %3 = alloca ptr, align 8
  store ptr %0, ptr %3, align 8
  %4 = load ptr, ptr %3, align 8
  %5 = getelementptr inbounds nuw %"class.std::unordered_map.64", ptr %4, i32 0, i32 0
  %6 = call ptr @_ZNSt10_HashtableIN4llvm9hash_codeESt4pairIKS1_NS0_10sampleprof15FunctionSamplesEESaIS6_ENSt8__detail10_Select1stESt8equal_toIS1_ESt4hashIS1_ENS8_18_Mod_range_hashingENS8_20_Default_ranged_hashENS8_20_Prime_rehash_policyENS8_17_Hashtable_traitsILb1ELb0ELb1EEEE3endEv(ptr noundef nonnull align 8 dereferenceable(56) %5) #2
  %7 = getelementptr inbounds nuw %"struct.std::__detail::_Node_iterator.499", ptr %2, i32 0, i32 0
  %8 = getelementptr inbounds nuw %"struct.std::__detail::_Node_iterator_base.500", ptr %7, i32 0, i32 0
  store ptr %6, ptr %8, align 8
  %9 = getelementptr inbounds nuw %"struct.std::__detail::_Node_iterator.499", ptr %2, i32 0, i32 0
  %10 = getelementptr inbounds nuw %"struct.std::__detail::_Node_iterator_base.500", ptr %9, i32 0, i32 0
  %11 = load ptr, ptr %10, align 8
  ret ptr %11
}

; Function Attrs: mustprogress nounwind uwtable
define linkonce_odr hidden ptr @_ZNSt13unordered_mapIN4llvm9hash_codeENS0_10sampleprof15FunctionSamplesESt4hashIS1_ESt8equal_toIS1_ESaISt4pairIKS1_S3_EEE5beginEv(ptr noundef nonnull align 8 dereferenceable(56) %0) #1 comdat align 2 {
  %2 = alloca %"struct.std::__detail::_Node_iterator.499", align 8
  %3 = alloca ptr, align 8
  store ptr %0, ptr %3, align 8
  %4 = load ptr, ptr %3, align 8
  %5 = getelementptr inbounds nuw %"class.std::unordered_map.64", ptr %4, i32 0, i32 0
  %6 = call ptr @_ZNSt10_HashtableIN4llvm9hash_codeESt4pairIKS1_NS0_10sampleprof15FunctionSamplesEESaIS6_ENSt8__detail10_Select1stESt8equal_toIS1_ESt4hashIS1_ENS8_18_Mod_range_hashingENS8_20_Default_ranged_hashENS8_20_Prime_rehash_policyENS8_17_Hashtable_traitsILb1ELb0ELb1EEEE5beginEv(ptr noundef nonnull align 8 dereferenceable(56) %5) #2
  %7 = getelementptr inbounds nuw %"struct.std::__detail::_Node_iterator.499", ptr %2, i32 0, i32 0
  %8 = getelementptr inbounds nuw %"struct.std::__detail::_Node_iterator_base.500", ptr %7, i32 0, i32 0
  store ptr %6, ptr %8, align 8
  %9 = getelementptr inbounds nuw %"struct.std::__detail::_Node_iterator.499", ptr %2, i32 0, i32 0
  %10 = getelementptr inbounds nuw %"struct.std::__detail::_Node_iterator_base.500", ptr %9, i32 0, i32 0
  %11 = load ptr, ptr %10, align 8
  ret ptr %11
}

; Function Attrs: mustprogress nounwind uwtable
define linkonce_odr hidden noundef nonnull align 8 dereferenceable(56) ptr @_ZN4llvm10sampleprof19SampleProfileReader11getProfilesEv(ptr noundef nonnull align 8 dereferenceable(198) %0) #1 comdat align 2 {
  %2 = alloca ptr, align 8
  store ptr %0, ptr %2, align 8
  %3 = load ptr, ptr %2, align 8
  %4 = getelementptr inbounds nuw %"class.llvm::sampleprof::SampleProfileReader", ptr %3, i32 0, i32 1
  ret ptr %4
}

; Function Attrs: mustprogress nounwind uwtable
define dso_local void @_ZN4llvm20SampleProfileMatcher32distributeIRToProfileLocationMapEv(ptr noundef nonnull align 8 dereferenceable(432) %0) #1 align 2 {
  %2 = alloca ptr, align 8
  %3 = alloca ptr, align 8
  %4 = alloca %"struct.std::__detail::_Node_iterator.499", align 8
  %5 = alloca %"struct.std::__detail::_Node_iterator.499", align 8
  %6 = alloca ptr, align 8
  store ptr %0, ptr %2, align 8
  %7 = load ptr, ptr %2, align 8
  %8 = getelementptr inbounds nuw %"class.llvm::SampleProfileMatcher", ptr %7, i32 0, i32 1
  %9 = load ptr, ptr %8, align 8
  %10 = call noundef nonnull align 8 dereferenceable(56) ptr @_ZN4llvm10sampleprof19SampleProfileReader11getProfilesEv(ptr noundef nonnull align 8 dereferenceable(198) %9)
  store ptr %10, ptr %3, align 8
  %11 = load ptr, ptr %3, align 8
  %12 = call ptr @_ZNSt13unordered_mapIN4llvm9hash_codeENS0_10sampleprof15FunctionSamplesESt4hashIS1_ESt8equal_toIS1_ESaISt4pairIKS1_S3_EEE5beginEv(ptr noundef nonnull align 8 dereferenceable(56) %11) #2
  %13 = getelementptr inbounds nuw %"struct.std::__detail::_Node_iterator.499", ptr %4, i32 0, i32 0
  %14 = getelementptr inbounds nuw %"struct.std::__detail::_Node_iterator_base.500", ptr %13, i32 0, i32 0
  store ptr %12, ptr %14, align 8
  %15 = load ptr, ptr %3, align 8
  %16 = call ptr @_ZNSt13unordered_mapIN4llvm9hash_codeENS0_10sampleprof15FunctionSamplesESt4hashIS1_ESt8equal_toIS1_ESaISt4pairIKS1_S3_EEE3endEv(ptr noundef nonnull align 8 dereferenceable(56) %15) #2
  %17 = getelementptr inbounds nuw %"struct.std::__detail::_Node_iterator.499", ptr %5, i32 0, i32 0
  %18 = getelementptr inbounds nuw %"struct.std::__detail::_Node_iterator_base.500", ptr %17, i32 0, i32 0
  store ptr %16, ptr %18, align 8
  br label %19

19:                                               ; preds = %25, %1
  %20 = call noundef zeroext i1 @_ZNSt8__detailneERKNS_19_Node_iterator_baseISt4pairIKN4llvm9hash_codeENS2_10sampleprof15FunctionSamplesEELb1EEESA_(ptr noundef nonnull align 8 dereferenceable(8) %4, ptr noundef nonnull align 8 dereferenceable(8) %5) #2
  br i1 %20, label %21, label %27

21:                                               ; preds = %19
  %22 = call noundef nonnull align 8 dereferenceable(184) ptr @_ZNKSt8__detail14_Node_iteratorISt4pairIKN4llvm9hash_codeENS2_10sampleprof15FunctionSamplesEELb0ELb1EEdeEv(ptr noundef nonnull align 8 dereferenceable(8) %4) #2
  store ptr %22, ptr %6, align 8
  %23 = load ptr, ptr %6, align 8
  %24 = getelementptr inbounds nuw %"struct.std::pair.501", ptr %23, i32 0, i32 1
  call void @_ZN4llvm20SampleProfileMatcher32distributeIRToProfileLocationMapERNS_10sampleprof15FunctionSamplesE(ptr noundef nonnull align 8 dereferenceable(432) %7, ptr noundef nonnull align 8 dereferenceable(176) %24)
  br label %25

25:                                               ; preds = %21
  %26 = call noundef nonnull align 8 dereferenceable(8) ptr @_ZNSt8__detail14_Node_iteratorISt4pairIKN4llvm9hash_codeENS2_10sampleprof15FunctionSamplesEELb0ELb1EEppEv(ptr noundef nonnull align 8 dereferenceable(8) %4) #2
  br label %19

27:                                               ; preds = %19
  ret void
}