; Function Attrs: mustprogress nounwind uwtable
define dso_local void @_ZN4llvm20SampleProfileMatcher32distributeIRToProfileLocationMapEv(ptr noundef nonnull align 8 dereferenceable(432) %0) local_unnamed_addr #0 align 2 {
  %2 = getelementptr inbounds nuw i8, ptr %0, i64 8
  %3 = load ptr, ptr %2, align 8
  %4 = getelementptr inbounds nuw i8, ptr %3, i64 24
  %.sroa.04.07 = load ptr, ptr %4, align 8
  %.not8 = icmp eq ptr %.sroa.04.07, null
  br i1 %.not8, label %._crit_edge, label %.lr.ph

.lr.ph:                                           ; preds = %1, %.lr.ph
  %.sroa.04.09 = phi ptr [ %.sroa.04.0, %.lr.ph ], [ %.sroa.04.07, %1 ]
  %5 = getelementptr inbounds nuw i8, ptr %.sroa.04.09, i64 16
  tail call void @_ZN4llvm20SampleProfileMatcher32distributeIRToProfileLocationMapERNS_10sampleprof15FunctionSamplesE(ptr noundef nonnull align 8 dereferenceable(432) %0, ptr noundef nonnull align 8 dereferenceable(176) %5)
  %.sroa.04.0 = load ptr, ptr %.sroa.04.09, align 8
  %.not = icmp eq ptr %.sroa.04.0, null
  br i1 %.not, label %._crit_edge, label %.lr.ph

._crit_edge:                                      ; preds = %.lr.ph, %1
  ret void
}